target datalayout = "e-m:e-p270:32:32-p271:32:32-p272:64:64-i64:64-i128:128-f80:128-n8:16:32:64-S128"
target triple = "x86_64-pc-linux-gnu"

%struct.x509_st = type { %struct.x509_cinf_st, %struct.X509_algor_st, %struct.asn1_string_st, %struct.x509_sig_info_st, %struct.CRYPTO_REF_COUNT, %struct.crypto_ex_data_st, i64, i64, i32, i32, i32, i32, ptr, ptr, ptr, ptr, ptr, ptr, ptr, ptr, [20 x i8], ptr, ptr, i32, ptr, ptr, ptr }
%struct.x509_cinf_st = type { ptr, %struct.asn1_string_st, %struct.X509_algor_st, ptr, %struct.X509_val_st, ptr, ptr, ptr, ptr, ptr, %struct.ASN1_ENCODING_st }
%struct.X509_val_st = type { ptr, ptr }
%struct.ASN1_ENCODING_st = type { ptr, i64, i32 }
%struct.X509_algor_st = type { ptr, ptr }
%struct.asn1_string_st = type { i32, i32, ptr, i64 }
%struct.x509_sig_info_st = type { i32, i32, i32, i32 }
%struct.CRYPTO_REF_COUNT = type { i32 }
%struct.crypto_ex_data_st = type { ptr, ptr }

@.str = private unnamed_addr constant [34 x i8] c"../openssl/crypto/x509/x509_vfy.c\00", align 1
@__func__.X509_self_signed = private unnamed_addr constant [17 x i8] c"X509_self_signed\00", align 1

; Function Attrs: nounwind uwtable
define i32 @X509_self_signed(ptr noundef %0, i32 noundef %1) #0 {
  %3 = alloca i32, align 4
  %4 = alloca ptr, align 8
  %5 = alloca i32, align 4
  %6 = alloca ptr, align 8
  %7 = alloca i32, align 4
  store ptr %0, ptr %4, align 8, !tbaa !3
  store i32 %1, ptr %5, align 4, !tbaa !8
  call void @llvm.lifetime.start.p0(i64 8, ptr %6) #8
  %8 = load ptr, ptr %4, align 8, !tbaa !3
  %9 = call ptr @X509_get0_pubkey(ptr noundef %8)
  store ptr %9, ptr %6, align 8, !tbaa !10
  %10 = icmp eq ptr %9, null
  br i1 %10, label %11, label %12

11:                                               ; preds = %2
  call void @ERR_new()
  call void @ERR_set_debug(ptr noundef @.str, i32 noundef 101, ptr noundef @__func__.X509_self_signed)
  call void (i32, i32, ptr, ...) @ERR_set_error(i32 noundef 11, i32 noundef 108, ptr noundef null)
  store i32 -1, ptr %3, align 4
  store i32 1, ptr %7, align 4
  br label %32

12:                                               ; preds = %2
  %13 = load ptr, ptr %4, align 8, !tbaa !3
  %14 = call i32 @ossl_x509v3_cache_extensions(ptr noundef %13)
  %15 = icmp ne i32 %14, 0
  br i1 %15, label %17, label %16

16:                                               ; preds = %12
  store i32 -1, ptr %3, align 4
  store i32 1, ptr %7, align 4
  br label %32

17:                                               ; preds = %12
  %18 = load ptr, ptr %4, align 8, !tbaa !3
  %19 = getelementptr inbounds nuw %struct.x509_st, ptr %18, i32 0, i32 8
  %20 = load i32, ptr %19, align 8, !tbaa !12
  %21 = and i32 %20, 8192
  %22 = icmp eq i32 %21, 0
  br i1 %22, label %23, label %24

23:                                               ; preds = %17
  store i32 0, ptr %3, align 4
  store i32 1, ptr %7, align 4
  br label %32

24:                                               ; preds = %17
  %25 = load i32, ptr %5, align 4, !tbaa !8
  %26 = icmp ne i32 %25, 0
  br i1 %26, label %28, label %27

27:                                               ; preds = %24
  store i32 1, ptr %3, align 4
  store i32 1, ptr %7, align 4
  br label %32

28:                                               ; preds = %24
  %29 = load ptr, ptr %4, align 8, !tbaa !3
  %30 = load ptr, ptr %6, align 8, !tbaa !10
  %31 = call i32 @X509_verify(ptr noundef %29, ptr noundef %30)
  store i32 %31, ptr %3, align 4
  store i32 1, ptr %7, align 4
  br label %32

32:                                               ; preds = %28, %27, %23, %16, %11
  call void @llvm.lifetime.end.p0(i64 8, ptr %6) #8
  %33 = load i32, ptr %3, align 4
  ret i32 %33
}