; Function Attrs: nounwind uwtable
define i32 @X509_self_signed(ptr noundef %0, i32 noundef %1) local_unnamed_addr #0 {
  %3 = tail call ptr @X509_get0_pubkey(ptr noundef %0) #10
  %4 = icmp eq ptr %3, null
  br i1 %4, label %5, label %6

5:                                                ; preds = %2
  tail call void @ERR_new() #10
  tail call void @ERR_set_debug(ptr noundef nonnull @.str, i32 noundef 101, ptr noundef nonnull @__func__.X509_self_signed) #10
  tail call void (i32, i32, ptr, ...) @ERR_set_error(i32 noundef 11, i32 noundef 108, ptr noundef null) #10
  br label %16

6:                                                ; preds = %2
  %7 = tail call i32 @ossl_x509v3_cache_extensions(ptr noundef %0) #10
  %.not = icmp eq i32 %7, 0
  br i1 %.not, label %16, label %8

8:                                                ; preds = %6
  %9 = getelementptr inbounds nuw i8, ptr %0, i64 232
  %10 = load i32, ptr %9, align 8, !tbaa !3
  %11 = and i32 %10, 8192
  %12 = icmp eq i32 %11, 0
  br i1 %12, label %16, label %13

13:                                               ; preds = %8
  %.not7 = icmp eq i32 %1, 0
  br i1 %.not7, label %16, label %14

14:                                               ; preds = %13
  %15 = tail call i32 @X509_verify(ptr noundef nonnull %0, ptr noundef nonnull %3) #10
  br label %16

16:                                               ; preds = %13, %8, %6, %14, %5
  %.0 = phi i32 [ -1, %5 ], [ %15, %14 ], [ -1, %6 ], [ 0, %8 ], [ 1, %13 ]
  ret i32 %.0
}